; Function Attrs: mustprogress uwtable
define void @_ZN7rocksdb13SstFileWriter6DeleteERKNS_5SliceES3_(ptr dead_on_unwind noalias writable sret(%"class.rocksdb::Status") align 8 %0, ptr noundef nonnull readonly align 8 captures(none) dereferenceable(8) %1, ptr noundef nonnull align 8 dereferenceable(16) %2, ptr noundef nonnull align 8 dereferenceable(16) %3) local_unnamed_addr #5 align 2 {
  %5 = alloca %"class.rocksdb::Slice", align 8
  %6 = load ptr, ptr %1, align 8, !tbaa !78
  call void @llvm.lifetime.start.p0(i64 16, ptr nonnull %5) #26
  store ptr @.str, ptr %5, align 8, !tbaa !4
  %7 = getelementptr inbounds nuw i8, ptr %5, i64 8
  store i64 0, ptr %7, align 8, !tbaa !11
  call void @_ZN7rocksdb13SstFileWriter3Rep3AddERKNS_5SliceES4_S4_NS_9ValueTypeE(ptr dead_on_unwind writable sret(%"class.rocksdb::Status") align 8 %0, ptr noundef nonnull align 8 dereferenceable(1993) %6, ptr noundef nonnull align 8 dereferenceable(16) %2, ptr noundef nonnull align 8 dereferenceable(16) %3, ptr noundef nonnull align 8 dereferenceable(16) %5, i8 noundef zeroext 20)
  call void @llvm.lifetime.end.p0(i64 16, ptr nonnull %5) #26
  ret void
}